(lp0
S'poi'
p1
aS'salary'
p2
aS'bonus'
p3
aS'deferral_payments'
p4
aS'total_payments'
p5
aS'loan_advances'
p6
aS'restricted_stock_deferred'
p7
aS'deferred_income'
p8
aS'total_stock_value'
p9
aS'expenses'
p10
aS'exercised_stock_options'
p11
aS'long_term_incentive'
p12
aS'restricted_stock'
p13
aS'director_fees'
p14
aS'shared_receipt_with_poi'
p15
aS'fraction_to_poi'
p16
aS'bonus_salary_ratio'
p17
a.